target datalayout = "e-m:e-p270:32:32-p271:32:32-p272:64:64-i64:64-i128:128-f80:128-n8:16:32:64-S128"
target triple = "x86_64-pc-linux-gnu"

; Function Attrs: mustprogress nounwind uwtable
define noundef i64 @_ZN12duckdb_miniz15mz_deflateBoundEPNS_11mz_stream_sEm(ptr noundef %0, i64 noundef %1) #0 {
  %3 = alloca ptr, align 8
  %4 = alloca i64, align 8
  store ptr %0, ptr %3, align 8, !tbaa !20
  store i64 %1, ptr %4, align 8, !tbaa !3
  %5 = load i64, ptr %4, align 8, !tbaa !3
  %6 = mul i64 %5, 110
  %7 = udiv i64 %6, 100
  %8 = add i64 128, %7
  %9 = load i64, ptr %4, align 8, !tbaa !3
  %10 = add i64 128, %9
  %11 = load i64, ptr %4, align 8, !tbaa !3
  %12 = udiv i64 %11, 31744
  %13 = add i64 %12, 1
  %14 = mul i64 %13, 5
  %15 = add i64 %10, %14
  %16 = icmp ugt i64 %8, %15
  br i1 %16, label %17, label %22

17:                                               ; preds = %2
  %18 = load i64, ptr %4, align 8, !tbaa !3
  %19 = mul i64 %18, 110
  %20 = udiv i64 %19, 100
  %21 = add i64 128, %20
  br label %30

22:                                               ; preds = %2
  %23 = load i64, ptr %4, align 8, !tbaa !3
  %24 = add i64 128, %23
  %25 = load i64, ptr %4, align 8, !tbaa !3
  %26 = udiv i64 %25, 31744
  %27 = add i64 %26, 1
  %28 = mul i64 %27, 5
  %29 = add i64 %24, %28
  br label %30

30:                                               ; preds = %22, %17
  %31 = phi i64 [ %21, %17 ], [ %29, %22 ]
  ret i64 %31
}